(lp0
(dp1
Vdomain
p2
Vwww.instagram.com
p3
sVname
p4
Vurlgen
p5
sVvalue
p6
V"{\u005c"time\u005c": 1512944924\u005c054 \u005c"2600:1700:dbd0:1290:f822:7096:af96:e6bc\u005c": 7018}:1eOA5X:18KREMTgmS_VermTcaOcQ7p-b50"
p7
sVpath
p8
V/
p9
sVhttpOnly
p10
I00
sVsecure
p11
I00
sa(dp12
Vdomain
p13
Vwww.instagram.com
p14
sVname
p15
Vrur
p16
sVvalue
p17
VPRN
p18
sVpath
p19
g9
sVhttpOnly
p20
I00
sVsecure
p21
I00
sa(dp22
Vdomain
p23
Vwww.instagram.com
p24
sVsecure
p25
I01
sVvalue
p26
V4078992028%3AuyctHzFZ0PcYSG%3A17
p27
sVexpiry
p28
F1520720923.150311
sVpath
p29
g9
sVhttpOnly
p30
I01
sVname
p31
Vsessionid
p32
sa(dp33
Vdomain
p34
Vwww.instagram.com
p35
sVsecure
p36
I01
sVvalue
p37
V1v8jDrvJvL5Gt1M3dpd6tvYVPRJSdK96
p38
sVexpiry
p39
F1544394524.833163
sVpath
p40
g9
sVhttpOnly
p41
I00
sVname
p42
Vcsrftoken
p43
sa(dp44
Vdomain
p45
Vwww.instagram.com
p46
sVname
p47
Vig_pr
p48
sVvalue
p49
V2
p50
sVpath
p51
g9
sVhttpOnly
p52
I00
sVsecure
p53
I00
sa(dp54
Vdomain
p55
Vwww.instagram.com
p56
sVsecure
p57
I00
sVvalue
p58
V4078992028
p59
sVexpiry
p60
F1520720924.833241
sVpath
p61
g9
sVhttpOnly
p62
I00
sVname
p63
Vds_user_id
p64
sa(dp65
Vdomain
p66
Vwww.instagram.com
p67
sVname
p68
Vig_vh
p69
sVvalue
p70
V663
p71
sVpath
p72
g9
sVhttpOnly
p73
I00
sVsecure
p74
I00
sa(dp75
Vdomain
p76
Vwww.instagram.com
p77
sVname
p78
Vig_vw
p79
sVvalue
p80
V1200
p81
sVpath
p82
g9
sVhttpOnly
p83
I00
sVsecure
p84
I00
sa(dp85
Vdomain
p86
Vwww.instagram.com
p87
sVname
p88
Vig_or
p89
sVvalue
p90
Vlandscape-primary
p91
sVpath
p92
g9
sVhttpOnly
p93
I00
sVsecure
p94
I00
sa(dp95
Vdomain
p96
Vwww.instagram.com
p97
sVsecure
p98
I00
sVvalue
p99
VWi21GAAEAAHHsv8S14TX_tOjC6qS
p100
sVexpiry
p101
F2143664917.957042
sVpath
p102
g9
sVhttpOnly
p103
I00
sVname
p104
Vmid
p105
sa.