(lp0
(dp1
Vdomain
p2
Vwww.instagram.com
p3
sVname
p4
Vurlgen
p5
sVvalue
p6
V"{\u005c"time\u005c": 1512947865\u005c054 \u005c"2600:1700:dbd0:1290:3d83:47fa:d7a1:ab7c\u005c": 7018}:1eOAqy:Bs7t8aNtNP4ajncJY-hBsXMWrV0"
p7
sVpath
p8
V/
p9
sVhttpOnly
p10
I00
sVsecure
p11
I00
sa(dp12
Vdomain
p13
Vwww.instagram.com
p14
sVname
p15
Vrur
p16
sVvalue
p17
VFRC
p18
sVpath
p19
g9
sVhttpOnly
p20
I00
sVsecure
p21
I00
sa(dp22
Vdomain
p23
Vwww.instagram.com
p24
sVsecure
p25
I00
sVvalue
p26
V2234935986
p27
sVexpiry
p28
F1520723868.739946
sVpath
p29
g9
sVhttpOnly
p30
I00
sVname
p31
Vds_user_id
p32
sa(dp33
Vdomain
p34
Vwww.instagram.com
p35
sVname
p36
Vig_vh
p37
sVvalue
p38
V665
p39
sVpath
p40
g9
sVhttpOnly
p41
I00
sVsecure
p42
I00
sa(dp43
Vdomain
p44
Vwww.instagram.com
p45
sVsecure
p46
I01
sVvalue
p47
VWa8B2PmHBCp2DhydJWdiFo1veZgumF8S
p48
sVexpiry
p49
F1544397468.739867
sVpath
p50
g9
sVhttpOnly
p51
I00
sVname
p52
Vcsrftoken
p53
sa(dp54
Vdomain
p55
Vwww.instagram.com
p56
sVname
p57
Vig_pr
p58
sVvalue
p59
V2
p60
sVpath
p61
g9
sVhttpOnly
p62
I00
sVsecure
p63
I00
sa(dp64
Vdomain
p65
Vwww.instagram.com
p66
sVname
p67
Vig_vw
p68
sVvalue
p69
V1200
p70
sVpath
p71
g9
sVhttpOnly
p72
I00
sVsecure
p73
I00
sa(dp74
Vdomain
p75
Vwww.instagram.com
p76
sVname
p77
Vig_or
p78
sVvalue
p79
Vlandscape-primary
p80
sVpath
p81
g9
sVhttpOnly
p82
I00
sVsecure
p83
I00
sa(dp84
Vdomain
p85
Vwww.instagram.com
p86
sVsecure
p87
I01
sVvalue
p88
VIGSC79e32c73a5ae3374f37308c9aebdcc08982083d3fd8b22248b5c0790efbc0319%3AtN2C4ee1nupJ0VfYvkwKOmgCk4607Xls%3A%7B%22_auth_user_id%22%3A2234935986%2C%22_auth_user_backend%22%3A%22accounts.backends.CaseInsensitiveModelBackend%22%2C%22_auth_user_hash%22%3A%22%22%2C%22_platform%22%3A4%2C%22_token_ver%22%3A2%2C%22_token%22%3A%222234935986%3AQl2NibpOqgcm1NLNNHvzgXjVASM92rdz%3A3139564939a403de255944d0997e2d22eab4ce8d718eccfa46fcb824d1979e69%22%2C%22last_refreshed%22%3A1512947865.1373794079%7D
p89
sVexpiry
p90
F1520723865.225241
sVpath
p91
g9
sVhttpOnly
p92
I01
sVname
p93
Vsessionid
p94
sa(dp95
Vdomain
p96
Vwww.instagram.com
p97
sVsecure
p98
I00
sVvalue
p99
VWi3AlAAEAAFsZGjinHBUdwpTj-FW
p100
sVexpiry
p101
F2143667860.695213
sVpath
p102
g9
sVhttpOnly
p103
I00
sVname
p104
Vmid
p105
sa.