(lp0
(dp1
Vdomain
p2
Vwww.instagram.com
p3
sVname
p4
Vurlgen
p5
sVvalue
p6
V"{\u005c"time\u005c": 1514292612\u005c054 \u005c"2600:1700:dbd0:1290:59ee:ffac:a39f:1e35\u005c": 7018}:1eTogS:l38D9iMOjc1GLkLpzEGNXR6Dbao"
p7
sVpath
p8
V/
p9
sVhttpOnly
p10
I00
sVsecure
p11
I00
sa(dp12
Vdomain
p13
Vwww.instagram.com
p14
sVname
p15
Vrur
p16
sVvalue
p17
VFRC
p18
sVpath
p19
g9
sVhttpOnly
p20
I00
sVsecure
p21
I00
sa(dp22
Vdomain
p23
Vwww.instagram.com
p24
sVname
p25
Vig_or
p26
sVvalue
p27
Vlandscape-primary
p28
sVpath
p29
g9
sVhttpOnly
p30
I00
sVsecure
p31
I00
sa(dp32
Vdomain
p33
Vwww.instagram.com
p34
sVsecure
p35
I01
sVvalue
p36
VIGSC77e9e06b6089f5431ed5dd97e9f3025071912ff101d951ba79d2353e7e96ea3d%3ApzXnPLYTHDowuVjQH5Rl0R7f4QLxZPio%3A%7B%22_auth_user_id%22%3A2234935986%2C%22_auth_user_backend%22%3A%22accounts.backends.CaseInsensitiveModelBackend%22%2C%22_auth_user_hash%22%3A%22%22%2C%22_platform%22%3A4%2C%22_token_ver%22%3A2%2C%22_token%22%3A%222234935986%3AEEiYnybFJvsmhrvEfd97ihjTGRcuX68c%3A9fde282d08f03d2b667169f43375301afe2619a2fde34e747ed06ea832944983%22%2C%22last_refreshed%22%3A1514292612.295173645%7D
p37
sVexpiry
p38
F1522068612.532849
sVpath
p39
g9
sVhttpOnly
p40
I01
sVname
p41
Vsessionid
p42
sa(dp43
Vdomain
p44
Vwww.instagram.com
p45
sVsecure
p46
I01
sVvalue
p47
VDI7WWxnhCQhgwxuEBYlTg80bUUnxBOoa
p48
sVexpiry
p49
F1545742216.123134
sVpath
p50
g9
sVhttpOnly
p51
I00
sVname
p52
Vcsrftoken
p53
sa(dp54
Vdomain
p55
Vwww.instagram.com
p56
sVname
p57
Vig_pr
p58
sVvalue
p59
V2
p60
sVpath
p61
g9
sVhttpOnly
p62
I00
sVsecure
p63
I00
sa(dp64
Vdomain
p65
Vwww.instagram.com
p66
sVsecure
p67
I00
sVvalue
p68
V2234935986
p69
sVexpiry
p70
F1522068616.123207
sVpath
p71
g9
sVhttpOnly
p72
I00
sVname
p73
Vds_user_id
p74
sa(dp75
Vdomain
p76
Vwww.instagram.com
p77
sVname
p78
Vig_vh
p79
sVvalue
p80
V659
p81
sVpath
p82
g9
sVhttpOnly
p83
I00
sVsecure
p84
I00
sa(dp85
Vdomain
p86
Vwww.instagram.com
p87
sVname
p88
Vig_vw
p89
sVvalue
p90
V1200
p91
sVpath
p92
g9
sVhttpOnly
p93
I00
sVsecure
p94
I00
sa(dp95
Vdomain
p96
Vwww.instagram.com
p97
sVsecure
p98
I00
sVvalue
p99
VWkJFfwAEAAH91aq8Htcut6kgkQLr
p100
sVexpiry
p101
F2145012607.90951
sVpath
p102
g9
sVhttpOnly
p103
I00
sVname
p104
Vmid
p105
sa.